; Function Attrs: mustprogress uwtable
define internal noundef zeroext i1 @"_ZNSt3__110__function6__funcIZN3tev11ImageButtonC1EPN7nanogui6WidgetERKNS_12basic_stringIcNS_11char_traitsIcEENS_9allocatorIcEEEEbE3$_0NSA_ISF_EEFbSE_EEclESE_"(ptr nocapture noundef nonnull readonly align 8 dereferenceable(16) %0, ptr nocapture nonnull readnone align 8 %1) unnamed_addr #3 align 2 {
  %3 = getelementptr inbounds i8, ptr %0, i64 8
  %.val = load ptr, ptr %3, align 8
  %4 = getelementptr inbounds i8, ptr %.val, i64 160
  %5 = load ptr, ptr %4, align 16
  %6 = getelementptr inbounds i8, ptr %5, i64 88
  %7 = load i8, ptr %6, align 8
  %8 = and i8 %7, 1
  %.not.i.i.i.i.i = icmp eq i8 %8, 0
  br i1 %.not.i.i.i.i.i, label %"_ZNSt3__110__function12__alloc_funcIZN3tev11ImageButtonC1EPN7nanogui6WidgetERKNS_12basic_stringIcNS_11char_traitsIcEENS_9allocatorIcEEEEbE3$_0NSA_ISF_EEFbSE_EEclB8ne190000ESE_.exit", label %9

9:                                                ; preds = %2
  %10 = getelementptr inbounds i8, ptr %5, i64 90
  store i8 0, ptr %10, align 2
  %11 = load ptr, ptr %4, align 16
  %12 = getelementptr inbounds i8, ptr %11, i64 136
  %13 = getelementptr inbounds i8, ptr %.val, i64 136
  %14 = tail call noundef nonnull align 8 dereferenceable(24) ptr @_ZNSt3__112basic_stringIcNS_11char_traitsIcEENS_9allocatorIcEEEaSERKS5_(ptr noundef nonnull align 8 dereferenceable(24) %13, ptr noundef nonnull align 8 dereferenceable(24) %12)
  %15 = getelementptr inbounds i8, ptr %.val, i64 352
  %16 = getelementptr inbounds i8, ptr %.val, i64 320
  tail call void @llvm.memset.p0.i64(ptr noundef nonnull align 16 dereferenceable(24) %15, i8 0, i64 24, i1 false)
  %17 = load ptr, ptr %16, align 16
  %.not.i.i.i.i.i.i = icmp eq ptr %17, null
  br i1 %.not.i.i.i.i.i.i, label %_ZN3tev11ImageButton10setCaptionERKNSt3__112basic_stringIcNS1_11char_traitsIcEENS1_9allocatorIcEEEE.exit.i.i.i.i.i, label %_ZNKSt3__18functionIFvvEEclEv.exit.i.i.i.i.i.i

_ZNKSt3__18functionIFvvEEclEv.exit.i.i.i.i.i.i:   ; preds = %9
  %18 = load ptr, ptr %17, align 8
  %19 = getelementptr inbounds i8, ptr %18, i64 48
  %20 = load ptr, ptr %19, align 8
  tail call void %20(ptr noundef nonnull align 8 dereferenceable(8) %17)
  br label %_ZN3tev11ImageButton10setCaptionERKNSt3__112basic_stringIcNS1_11char_traitsIcEENS1_9allocatorIcEEEE.exit.i.i.i.i.i

_ZN3tev11ImageButton10setCaptionERKNSt3__112basic_stringIcNS1_11char_traitsIcEENS1_9allocatorIcEEEE.exit.i.i.i.i.i: ; preds = %_ZNKSt3__18functionIFvvEEclEv.exit.i.i.i.i.i.i, %9
  %21 = load ptr, ptr %4, align 16
  %22 = getelementptr inbounds i8, ptr %21, i64 88
  store i8 0, ptr %22, align 8
  br label %"_ZNSt3__110__function12__alloc_funcIZN3tev11ImageButtonC1EPN7nanogui6WidgetERKNS_12basic_stringIcNS_11char_traitsIcEENS_9allocatorIcEEEEbE3$_0NSA_ISF_EEFbSE_EEclB8ne190000ESE_.exit"

"_ZNSt3__110__function12__alloc_funcIZN3tev11ImageButtonC1EPN7nanogui6WidgetERKNS_12basic_stringIcNS_11char_traitsIcEENS_9allocatorIcEEEEbE3$_0NSA_ISF_EEFbSE_EEclB8ne190000ESE_.exit": ; preds = %2, %_ZN3tev11ImageButton10setCaptionERKNSt3__112basic_stringIcNS1_11char_traitsIcEENS1_9allocatorIcEEEE.exit.i.i.i.i.i
  ret i1 true
}